; ModuleID = '22/517.c'
source_filename = "22/517.c"
target datalayout = "e-m:e-p270:32:32-p271:32:32-p272:64:64-i64:64-f80:128-n8:16:32:64-S128"
target triple = "x86_64-pc-linux-gnu"

@.str = private unnamed_addr constant [3 x i8] c"%d\00", align 1
@.str.1 = private unnamed_addr constant [3 x i8] c"%c\00", align 1
@.str.2 = private unnamed_addr constant [4 x i8] c"No\0A\00", align 1
@.str.3 = private unnamed_addr constant [4 x i8] c"%d\0A\00", align 1

; Function Attrs: noinline nounwind uwtable
define dso_local void @main() #0 {
  %1 = alloca [300 x i32], align 16
  %2 = alloca i32, align 4
  %3 = alloca i32, align 4
  %4 = alloca i32, align 4
  %5 = alloca i32, align 4
  %6 = alloca i32, align 4
  %7 = alloca i8, align 1
  store i32 1, i32* %5, align 4
  store i32 0, i32* %6, align 4
  %8 = getelementptr inbounds [300 x i32], [300 x i32]* %1, i64 0, i64 0
  %9 = call i32 (i8*, ...) @__isoc99_scanf(i8* getelementptr inbounds ([3 x i8], [3 x i8]* @.str, i64 0, i64 0), i32* %8)
  store i32 1, i32* %2, align 4
  br label %10

10:                                               ; preds = %23, %0
  %11 = call i32 (i8*, ...) @__isoc99_scanf(i8* getelementptr inbounds ([3 x i8], [3 x i8]* @.str.1, i64 0, i64 0), i8* %7)
  %12 = load i8, i8* %7, align 1
  %13 = sext i8 %12 to i32
  %14 = icmp eq i32 %13, 10
  br i1 %14, label %15, label %16

15:                                               ; preds = %10
  br label %26

16:                                               ; preds = %10
  %17 = load i32, i32* %2, align 4
  %18 = sext i32 %17 to i64
  %19 = getelementptr inbounds [300 x i32], [300 x i32]* %1, i64 0, i64 %18
  %20 = call i32 (i8*, ...) @__isoc99_scanf(i8* getelementptr inbounds ([3 x i8], [3 x i8]* @.str, i64 0, i64 0), i32* %19)
  %21 = load i32, i32* %5, align 4
  %22 = add nsw i32 %21, 1
  store i32 %22, i32* %5, align 4
  br label %23

23:                                               ; preds = %16
  %24 = load i32, i32* %2, align 4
  %25 = add nsw i32 %24, 1
  store i32 %25, i32* %2, align 4
  br label %10

26:                                               ; preds = %15
  %27 = load i32, i32* %5, align 4
  %28 = icmp eq i32 %27, 1
  br i1 %28, label %29, label %31

29:                                               ; preds = %26
  %30 = call i32 (i8*, ...) @printf(i8* getelementptr inbounds ([4 x i8], [4 x i8]* @.str.2, i64 0, i64 0))
  br label %120

31:                                               ; preds = %26
  store i32 0, i32* %2, align 4
  br label %32

32:                                               ; preds = %79, %31
  %33 = load i32, i32* %2, align 4
  %34 = load i32, i32* %5, align 4
  %35 = sub nsw i32 %34, 1
  %36 = icmp slt i32 %33, %35
  br i1 %36, label %37, label %82

37:                                               ; preds = %32
  store i32 0, i32* %3, align 4
  br label %38

38:                                               ; preds = %75, %37
  %39 = load i32, i32* %3, align 4
  %40 = load i32, i32* %5, align 4
  %41 = sub nsw i32 %40, 1
  %42 = load i32, i32* %2, align 4
  %43 = sub nsw i32 %41, %42
  %44 = icmp slt i32 %39, %43
  br i1 %44, label %45, label %78

45:                                               ; preds = %38
  %46 = load i32, i32* %3, align 4
  %47 = sext i32 %46 to i64
  %48 = getelementptr inbounds [300 x i32], [300 x i32]* %1, i64 0, i64 %47
  %49 = load i32, i32* %48, align 4
  %50 = load i32, i32* %3, align 4
  %51 = add nsw i32 %50, 1
  %52 = sext i32 %51 to i64
  %53 = getelementptr inbounds [300 x i32], [300 x i32]* %1, i64 0, i64 %52
  %54 = load i32, i32* %53, align 4
  %55 = icmp slt i32 %49, %54
  br i1 %55, label %56, label %74

56:                                               ; preds = %45
  %57 = load i32, i32* %3, align 4
  %58 = sext i32 %57 to i64
  %59 = getelementptr inbounds [300 x i32], [300 x i32]* %1, i64 0, i64 %58
  %60 = load i32, i32* %59, align 4
  store i32 %60, i32* %4, align 4
  %61 = load i32, i32* %3, align 4
  %62 = add nsw i32 %61, 1
  %63 = sext i32 %62 to i64
  %64 = getelementptr inbounds [300 x i32], [300 x i32]* %1, i64 0, i64 %63
  %65 = load i32, i32* %64, align 4
  %66 = load i32, i32* %3, align 4
  %67 = sext i32 %66 to i64
  %68 = getelementptr inbounds [300 x i32], [300 x i32]* %1, i64 0, i64 %67
  store i32 %65, i32* %68, align 4
  %69 = load i32, i32* %4, align 4
  %70 = load i32, i32* %3, align 4
  %71 = add nsw i32 %70, 1
  %72 = sext i32 %71 to i64
  %73 = getelementptr inbounds [300 x i32], [300 x i32]* %1, i64 0, i64 %72
  store i32 %69, i32* %73, align 4
  br label %74

74:                                               ; preds = %56, %45
  br label %75

75:                                               ; preds = %74
  %76 = load i32, i32* %3, align 4
  %77 = add nsw i32 %76, 1
  store i32 %77, i32* %3, align 4
  br label %38

78:                                               ; preds = %38
  br label %79

79:                                               ; preds = %78
  %80 = load i32, i32* %2, align 4
  %81 = add nsw i32 %80, 1
  store i32 %81, i32* %2, align 4
  br label %32

82:                                               ; preds = %32
  %83 = getelementptr inbounds [300 x i32], [300 x i32]* %1, i64 0, i64 0
  %84 = load i32, i32* %83, align 16
  %85 = load i32, i32* %5, align 4
  %86 = sub nsw i32 %85, 1
  %87 = sext i32 %86 to i64
  %88 = getelementptr inbounds [300 x i32], [300 x i32]* %1, i64 0, i64 %87
  %89 = load i32, i32* %88, align 4
  %90 = icmp eq i32 %84, %89
  br i1 %90, label %91, label %93

91:                                               ; preds = %82
  %92 = call i32 (i8*, ...) @printf(i8* getelementptr inbounds ([4 x i8], [4 x i8]* @.str.2, i64 0, i64 0))
  br label %119

93:                                               ; preds = %82
  store i32 1, i32* %2, align 4
  br label %94

94:                                               ; preds = %115, %93
  %95 = load i32, i32* %2, align 4
  %96 = sext i32 %95 to i64
  %97 = getelementptr inbounds [300 x i32], [300 x i32]* %1, i64 0, i64 %96
  %98 = load i32, i32* %97, align 4
  %99 = getelementptr inbounds [300 x i32], [300 x i32]* %1, i64 0, i64 0
  %100 = load i32, i32* %99, align 16
  %101 = icmp ne i32 %98, %100
  br i1 %101, label %102, label %110

102:                                              ; preds = %94
  %103 = load i32, i32* %2, align 4
  %104 = sext i32 %103 to i64
  %105 = getelementptr inbounds [300 x i32], [300 x i32]* %1, i64 0, i64 %104
  %106 = load i32, i32* %105, align 4
  %107 = call i32 (i8*, ...) @printf(i8* getelementptr inbounds ([4 x i8], [4 x i8]* @.str.3, i64 0, i64 0), i32 %106)
  %108 = load i32, i32* %6, align 4
  %109 = add nsw i32 %108, 1
  store i32 %109, i32* %6, align 4
  br label %110

110:                                              ; preds = %102, %94
  %111 = load i32, i32* %6, align 4
  %112 = icmp eq i32 %111, 1
  br i1 %112, label %113, label %114

113:                                              ; preds = %110
  br label %118

114:                                              ; preds = %110
  br label %115

115:                                              ; preds = %114
  %116 = load i32, i32* %2, align 4
  %117 = add nsw i32 %116, 1
  store i32 %117, i32* %2, align 4
  br label %94

118:                                              ; preds = %113
  br label %119

119:                                              ; preds = %118, %91
  br label %120

120:                                              ; preds = %119, %29
  ret void
}

declare dso_local i32 @__isoc99_scanf(i8*, ...) #1

declare dso_local i32 @printf(i8*, ...) #1


!llvm.module.flags = !{!0}
!llvm.ident = !{!1}

!0 = !{i32 1, !"wchar_size", i32 4}
!1 = !{!"clang version 10.0.0-4ubuntu1 "}
