; ModuleID = 'source-C-CXX/21/517.c'
source_filename = "source-C-CXX/21/517.c"
target datalayout = "e-m:e-p270:32:32-p271:32:32-p272:64:64-i64:64-f80:128-n8:16:32:64-S128"
target triple = "x86_64-pc-linux-gnu"

@.str = private unnamed_addr constant [3 x i8] c"%d\00", align 1
@.str.1 = private unnamed_addr constant [3 x i8] c"%c\00", align 1
@.str.3 = private unnamed_addr constant [4 x i8] c"%d\0A\00", align 1
@str.4 = private unnamed_addr constant [3 x i8] c"No\00", align 1

; Function Attrs: nofree nounwind sspstrong uwtable
define dso_local void @main() local_unnamed_addr #0 {
  %1 = alloca [300 x i32], align 16
  %2 = alloca i8, align 1
  %3 = bitcast [300 x i32]* %1 to i8*
  call void @llvm.lifetime.start.p0i8(i64 1200, i8* nonnull %3) #4
  call void @llvm.lifetime.start.p0i8(i64 1, i8* nonnull %2) #4
  %4 = getelementptr inbounds [300 x i32], [300 x i32]* %1, i64 0, i64 0
  %5 = call i32 (i8*, ...) @__isoc99_scanf(i8* getelementptr inbounds ([3 x i8], [3 x i8]* @.str, i64 0, i64 0), i32* nonnull %4)
  %6 = call i32 (i8*, ...) @__isoc99_scanf(i8* getelementptr inbounds ([3 x i8], [3 x i8]* @.str.1, i64 0, i64 0), i8* nonnull %2)
  %7 = load i8, i8* %2, align 1, !tbaa !5
  %8 = icmp eq i8 %7, 10
  br i1 %8, label %19, label %9

9:                                                ; preds = %0, %9
  %10 = phi i64 [ %15, %9 ], [ 1, %0 ]
  %11 = phi i32 [ %14, %9 ], [ 1, %0 ]
  %12 = getelementptr inbounds [300 x i32], [300 x i32]* %1, i64 0, i64 %10
  %13 = call i32 (i8*, ...) @__isoc99_scanf(i8* getelementptr inbounds ([3 x i8], [3 x i8]* @.str, i64 0, i64 0), i32* nonnull %12)
  %14 = add nuw nsw i32 %11, 1
  %15 = add nuw i64 %10, 1
  %16 = call i32 (i8*, ...) @__isoc99_scanf(i8* getelementptr inbounds ([3 x i8], [3 x i8]* @.str.1, i64 0, i64 0), i8* nonnull %2)
  %17 = load i8, i8* %2, align 1, !tbaa !5
  %18 = icmp eq i8 %17, 10
  br i1 %18, label %21, label %9

19:                                               ; preds = %0
  %20 = call i32 @puts(i8* nonnull dereferenceable(1) getelementptr inbounds ([3 x i8], [3 x i8]* @str.4, i64 0, i64 0))
  br label %78

21:                                               ; preds = %9, %59
  %22 = phi i32 [ %60, %59 ], [ 0, %9 ]
  %23 = sub nsw i32 %11, %22
  %24 = zext i32 %23 to i64
  %25 = icmp ugt i32 %11, %22
  br i1 %25, label %26, label %59

26:                                               ; preds = %21
  %27 = load i32, i32* %4, align 16, !tbaa !8
  %28 = and i64 %24, 1
  %29 = icmp eq i32 %23, 1
  br i1 %29, label %48, label %30

30:                                               ; preds = %26
  %31 = and i64 %24, 4294967294
  br label %32

32:                                               ; preds = %81, %30
  %33 = phi i32 [ %27, %30 ], [ %82, %81 ]
  %34 = phi i64 [ 0, %30 ], [ %44, %81 ]
  %35 = phi i64 [ %31, %30 ], [ %83, %81 ]
  %36 = or i64 %34, 1
  %37 = getelementptr inbounds [300 x i32], [300 x i32]* %1, i64 0, i64 %36
  %38 = load i32, i32* %37, align 4, !tbaa !8
  %39 = icmp slt i32 %33, %38
  br i1 %39, label %40, label %42

40:                                               ; preds = %32
  %41 = getelementptr inbounds [300 x i32], [300 x i32]* %1, i64 0, i64 %34
  store i32 %38, i32* %41, align 8, !tbaa !8
  store i32 %33, i32* %37, align 4, !tbaa !8
  br label %42

42:                                               ; preds = %32, %40
  %43 = phi i32 [ %38, %32 ], [ %33, %40 ]
  %44 = add nuw nsw i64 %34, 2
  %45 = getelementptr inbounds [300 x i32], [300 x i32]* %1, i64 0, i64 %44
  %46 = load i32, i32* %45, align 8, !tbaa !8
  %47 = icmp slt i32 %43, %46
  br i1 %47, label %79, label %81

48:                                               ; preds = %81, %26
  %49 = phi i32 [ %27, %26 ], [ %82, %81 ]
  %50 = phi i64 [ 0, %26 ], [ %44, %81 ]
  %51 = icmp eq i64 %28, 0
  br i1 %51, label %59, label %52

52:                                               ; preds = %48
  %53 = add nuw nsw i64 %50, 1
  %54 = getelementptr inbounds [300 x i32], [300 x i32]* %1, i64 0, i64 %53
  %55 = load i32, i32* %54, align 4, !tbaa !8
  %56 = icmp slt i32 %49, %55
  br i1 %56, label %57, label %59

57:                                               ; preds = %52
  %58 = getelementptr inbounds [300 x i32], [300 x i32]* %1, i64 0, i64 %50
  store i32 %55, i32* %58, align 4, !tbaa !8
  store i32 %49, i32* %54, align 4, !tbaa !8
  br label %59

59:                                               ; preds = %48, %52, %57, %21
  %60 = add nuw nsw i32 %22, 1
  %61 = icmp eq i32 %60, %11
  br i1 %61, label %62, label %21, !llvm.loop !10

62:                                               ; preds = %59
  %63 = load i32, i32* %4, align 16, !tbaa !8
  %64 = zext i32 %11 to i64
  %65 = getelementptr inbounds [300 x i32], [300 x i32]* %1, i64 0, i64 %64
  %66 = load i32, i32* %65, align 4, !tbaa !8
  %67 = icmp eq i32 %63, %66
  br i1 %67, label %68, label %70

68:                                               ; preds = %62
  %69 = call i32 @puts(i8* nonnull dereferenceable(1) getelementptr inbounds ([3 x i8], [3 x i8]* @str.4, i64 0, i64 0))
  br label %78

70:                                               ; preds = %62, %70
  %71 = phi i64 [ %75, %70 ], [ 1, %62 ]
  %72 = getelementptr inbounds [300 x i32], [300 x i32]* %1, i64 0, i64 %71
  %73 = load i32, i32* %72, align 4, !tbaa !8
  %74 = icmp eq i32 %73, %63
  %75 = add nuw i64 %71, 1
  br i1 %74, label %70, label %76

76:                                               ; preds = %70
  %77 = call i32 (i8*, ...) @printf(i8* nonnull dereferenceable(1) getelementptr inbounds ([4 x i8], [4 x i8]* @.str.3, i64 0, i64 0), i32 %73)
  br label %78

78:                                               ; preds = %76, %68, %19
  call void @llvm.lifetime.end.p0i8(i64 1, i8* nonnull %2) #4
  call void @llvm.lifetime.end.p0i8(i64 1200, i8* nonnull %3) #4
  ret void

79:                                               ; preds = %42
  %80 = getelementptr inbounds [300 x i32], [300 x i32]* %1, i64 0, i64 %36
  store i32 %46, i32* %80, align 4, !tbaa !8
  store i32 %43, i32* %45, align 8, !tbaa !8
  br label %81

81:                                               ; preds = %79, %42
  %82 = phi i32 [ %46, %42 ], [ %43, %79 ]
  %83 = add i64 %35, -2
  %84 = icmp eq i64 %83, 0
  br i1 %84, label %48, label %32, !llvm.loop !12
}

; Function Attrs: argmemonly mustprogress nofree nosync nounwind willreturn
declare void @llvm.lifetime.start.p0i8(i64 immarg, i8* nocapture) #1

; Function Attrs: nofree nounwind
declare noundef i32 @__isoc99_scanf(i8* nocapture noundef readonly, ...) local_unnamed_addr #2

; Function Attrs: nofree nounwind
declare noundef i32 @printf(i8* nocapture noundef readonly, ...) local_unnamed_addr #2

; Function Attrs: argmemonly mustprogress nofree nosync nounwind willreturn
declare void @llvm.lifetime.end.p0i8(i64 immarg, i8* nocapture) #1

; Function Attrs: nofree nounwind
declare noundef i32 @puts(i8* nocapture noundef readonly) local_unnamed_addr #3


!llvm.module.flags = !{!0, !1, !2, !3}
!llvm.ident = !{!4}

!0 = !{i32 1, !"wchar_size", i32 4}
!1 = !{i32 7, !"PIC Level", i32 2}
!2 = !{i32 7, !"PIE Level", i32 2}
!3 = !{i32 7, !"uwtable", i32 1}
!4 = !{!"clang version 13.0.0"}
!5 = !{!6, !6, i64 0}
!6 = !{!"omnipotent char", !7, i64 0}
!7 = !{!"Simple C/C++ TBAA"}
!8 = !{!9, !9, i64 0}
!9 = !{!"int", !6, i64 0}
!10 = distinct !{!10, !11}
!11 = !{!"llvm.loop.mustprogress"}
!12 = distinct !{!12, !11}
